; Function Attrs: mustprogress nounwind uwtable
define internal fastcc void @_ZNSt8_Rb_treeIdSt4pairIKdN32pxrInternal_v0_24__pxrReserved__12_GLOBAL__N_113Usd_ClipEntryEESt10_Select1stIS5_ESt4lessIdESaIS5_EE8_M_eraseEPSt13_Rb_tree_nodeIS5_E(ptr noundef %0) unnamed_addr #2 align 2 personality ptr @__gxx_personality_v0 {
  %.not1 = icmp eq ptr %0, null
  br i1 %.not1, label %._crit_edge, label %.lr.ph

.lr.ph:                                           ; preds = %1, %.lr.ph
  %.02 = phi ptr [ %.0.val, %.lr.ph ], [ %0, %1 ]
  %2 = getelementptr i8, ptr %.02, i64 24
  %.0.val6 = load ptr, ptr %2, align 8
  tail call fastcc void @_ZNSt8_Rb_treeIdSt4pairIKdN32pxrInternal_v0_24__pxrReserved__12_GLOBAL__N_113Usd_ClipEntryEESt10_Select1stIS5_ESt4lessIdESaIS5_EE8_M_eraseEPSt13_Rb_tree_nodeIS5_E(ptr noundef %.0.val6)
  %3 = getelementptr i8, ptr %.02, i64 16
  %.0.val = load ptr, ptr %3, align 8
  %4 = getelementptr inbounds nuw i8, ptr %.02, i64 48
  %5 = getelementptr inbounds nuw i8, ptr %.02, i64 80
  tail call void @_ZNSt7__cxx1112basic_stringIcSt11char_traitsIcESaIcEED1Ev(ptr noundef nonnull align 8 dereferenceable(32) %5) #20
  tail call void @_ZNSt7__cxx1112basic_stringIcSt11char_traitsIcESaIcEED1Ev(ptr noundef nonnull align 8 dereferenceable(64) %4) #20
  tail call void @_ZdlPvm(ptr noundef nonnull %.02, i64 noundef 112) #22
  %.not = icmp eq ptr %.0.val, null
  br i1 %.not, label %._crit_edge, label %.lr.ph, !llvm.loop !71

._crit_edge:                                      ; preds = %.lr.ph, %1
  ret void
}